(dp0
S'deferred_income,expenses,from_messages,total_stock_value'
p1
(dp2
S'f1'
p3
F0.36363636363636365
sS'f2'
p4
F0.3125
sS'recall'
p5
F0.2857142857142857
sS'precision'
p6
F0.5
sS'time_taken'
p7
F41.27409601211548
sS'accuracy'
p8
F0.7586206896551724
ssS'deferred_income,exercised_stock_options,from_messages,from_poi_to_this_person'
p9
(dp10
g3
F0.36363636363636365
sg4
F0.3125
sg5
F0.2857142857142857
sg6
F0.5
sg7
F33.05187201499939
sg8
F0.7586206896551724
ssS'deferred_income,exercised_stock_options,from_messages'
p11
(dp12
g3
F0.36363636363636365
sg4
F0.3125
sg5
F0.2857142857142857
sg6
F0.5
sg7
F28.559093952178955
sg8
F0.7586206896551724
ssS'deferred_income,from_messages,long_term_incentive,total_stock_value'
p13
(dp14
g3
F0.36363636363636365
sg4
F0.3125
sg5
F0.2857142857142857
sg6
F0.5
sg7
F39.736730098724365
sg8
F0.7586206896551724
ssS'deferred_income,exercised_stock_options,long_term_incentive,total_stock_value'
p15
(dp16
g3
F0.36363636363636365
sg4
F0.3125
sg5
F0.2857142857142857
sg6
F0.5
sg7
F37.18180704116821
sg8
F0.7586206896551724
ssS'deferred_income,exercised_stock_options,from_messages,from_this_person_to_poi'
p17
(dp18
g3
F0.36363636363636365
sg4
F0.3125
sg5
F0.2857142857142857
sg6
F0.5
sg7
F31.269866943359375
sg8
F0.7586206896551724
ssS'deferred_income,exercised_stock_options,long_term_incentive,salary'
p19
(dp20
g3
F0.36363636363636365
sg4
F0.3125
sg5
F0.2857142857142857
sg6
F0.5
sg7
F33.846827030181885
sg8
F0.7586206896551724
ss.